; Function Attrs: nounwind uwtable
define internal noundef i32 @rm_read_close(ptr noundef readonly captures(none) %0) #0 {
  %2 = getelementptr inbounds nuw i8, ptr %0, i64 44
  %3 = load i32, ptr %2, align 4, !tbaa !112
  %.not = icmp eq i32 %3, 0
  br i1 %.not, label %._crit_edge, label %.lr.ph

.lr.ph:                                           ; preds = %1
  %4 = getelementptr inbounds nuw i8, ptr %0, i64 48
  br label %5

5:                                                ; preds = %.lr.ph, %ff_rm_free_rmstream.exit
  %6 = phi i32 [ %3, %.lr.ph ], [ %13, %ff_rm_free_rmstream.exit ]
  %indvars.iv = phi i64 [ 0, %.lr.ph ], [ %indvars.iv.next, %ff_rm_free_rmstream.exit ]
  %7 = load ptr, ptr %4, align 8, !tbaa !107
  %8 = getelementptr inbounds nuw ptr, ptr %7, i64 %indvars.iv
  %9 = load ptr, ptr %8, align 8, !tbaa !108
  %10 = getelementptr inbounds nuw i8, ptr %9, i64 24
  %11 = load ptr, ptr %10, align 8, !tbaa !100
  %.not.i = icmp eq ptr %11, null
  br i1 %.not.i, label %ff_rm_free_rmstream.exit, label %12

12:                                               ; preds = %5
  tail call void @av_packet_unref(ptr noundef nonnull %11) #12
  %.pre = load i32, ptr %2, align 4, !tbaa !112
  br label %ff_rm_free_rmstream.exit

ff_rm_free_rmstream.exit:                         ; preds = %5, %12
  %13 = phi i32 [ %6, %5 ], [ %.pre, %12 ]
  %indvars.iv.next = add nuw nsw i64 %indvars.iv, 1
  %14 = zext i32 %13 to i64
  %15 = icmp samesign ult i64 %indvars.iv.next, %14
  br i1 %15, label %5, label %._crit_edge, !llvm.loop !113

._crit_edge:                                      ; preds = %ff_rm_free_rmstream.exit, %1
  ret i32 0
}